target datalayout = "e-m:e-p270:32:32-p271:32:32-p272:64:64-i64:64-i128:128-f80:128-n8:16:32:64-S128"
target triple = "x86_64-pc-linux-gnu"

%struct.rb_data_type_struct = type { ptr, %struct.anon.15, ptr, ptr, i64 }
%struct.anon.15 = type { ptr, ptr, ptr, ptr, [1 x ptr] }
%struct.dir_data = type { ptr, i64, ptr }
%struct.RBasic = type { i64, i64 }
%struct.RString = type { %struct.RBasic, i64, %union.anon.16 }
%union.anon.16 = type { %struct.anon.17 }
%struct.anon.17 = type { ptr, %union.anon.18 }
%union.anon.18 = type { i64 }
%struct.anon.19 = type { [1 x i8] }
%union.anon.20 = type { ptr }

@.str.41 = private unnamed_addr constant [15 x i8] c"dir_initialize\00", align 1
@rb_cThread = external global i64, align 8
@.str.50 = private unnamed_addr constant [9 x i8] c"closedir\00", align 1
@dir_data_type = internal constant %struct.rb_data_type_struct { ptr @.str.44, %struct.anon.15 { ptr @dir_refs, ptr @dir_free, ptr null, ptr null, [1 x ptr] zeroinitializer }, ptr null, ptr null, i64 16419 }, align 8
@.str.53 = private unnamed_addr constant [9 x i8] c"../dir.c\00", align 1

; Function Attrs: inlinehint nounwind sspstrong willreturn memory(read) uwtable
define internal i64 @RB_FL_TEST_RAW(i64 noundef %0, i64 noundef %1) #19 {
  %3 = alloca i64, align 8
  %4 = alloca i64, align 8
  store i64 %0, ptr %3, align 8, !tbaa !7
  store i64 %1, ptr %4, align 8, !tbaa !7
  %5 = load i64, ptr %3, align 8, !tbaa !7
  %6 = inttoptr i64 %5 to ptr
  %7 = getelementptr inbounds nuw %struct.RBasic, ptr %6, i32 0, i32 0
  %8 = load i64, ptr %7, align 8, !tbaa !184
  %9 = load i64, ptr %4, align 8, !tbaa !7
  %10 = and i64 %8, %9
  ret i64 %10
}

; Function Attrs: inlinehint nounwind sspstrong willreturn memory(none) uwtable
define internal zeroext i1 @RB_IMMEDIATE_P(i64 noundef %0) #12 {
  %2 = alloca i64, align 8
  store i64 %0, ptr %2, align 8, !tbaa !7
  %3 = load i64, ptr %2, align 8, !tbaa !7
  %4 = and i64 %3, 7
  %5 = icmp ne i64 %4, 0
  ret i1 %5
}

; Function Attrs: inlinehint nounwind sspstrong willreturn memory(read) uwtable
define internal i64 @RSTRING_LEN(i64 noundef %0) #19 {
  %2 = alloca i64, align 8
  store i64 %0, ptr %2, align 8, !tbaa !7
  %3 = load i64, ptr %2, align 8, !tbaa !7
  %4 = inttoptr i64 %3 to ptr
  %5 = getelementptr inbounds nuw %struct.RString, ptr %4, i32 0, i32 1
  %6 = load i64, ptr %5, align 8, !tbaa !202
  ret i64 %6
}

; Function Attrs: inlinehint nounwind sspstrong willreturn memory(read) uwtable
define internal zeroext i1 @RB_FL_ANY_RAW(i64 noundef %0, i64 noundef %1) #19 {
  %3 = alloca i64, align 8
  %4 = alloca i64, align 8
  store i64 %0, ptr %3, align 8, !tbaa !7
  store i64 %1, ptr %4, align 8, !tbaa !7
  %5 = load i64, ptr %3, align 8, !tbaa !7
  %6 = load i64, ptr %4, align 8, !tbaa !7
  %7 = call i64 @RB_FL_TEST_RAW(i64 noundef %5, i64 noundef %6) #27
  %8 = icmp ne i64 %7, 0
  ret i1 %8
}

; Function Attrs: inlinehint nounwind sspstrong willreturn memory(none) uwtable
define internal zeroext i1 @RB_SPECIAL_CONST_P(i64 noundef %0) #12 {
  %2 = alloca i64, align 8
  store i64 %0, ptr %2, align 8, !tbaa !7
  %3 = load i64, ptr %2, align 8, !tbaa !7
  %4 = icmp eq i64 %3, 0
  br i1 %4, label %8, label %5

5:                                                ; preds = %1
  %6 = load i64, ptr %2, align 8, !tbaa !7
  %7 = call zeroext i1 @RB_IMMEDIATE_P(i64 noundef %6) #31
  br label %8

8:                                                ; preds = %5, %1
  %9 = phi i1 [ true, %1 ], [ %7, %5 ]
  ret i1 %9
}

; Function Attrs: inlinehint nounwind sspstrong willreturn memory(read, argmem: readwrite) uwtable
define internal void @rbimpl_rstring_getmem(ptr dead_on_unwind noalias writable sret(%struct.RString) align 8 %0, i64 noundef %1) #24 {
  %3 = alloca i64, align 8
  store i64 %1, ptr %3, align 8, !tbaa !7
  %4 = load i64, ptr %3, align 8, !tbaa !7
  %5 = call zeroext i1 @RB_FL_ANY_RAW(i64 noundef %4, i64 noundef 8192) #27
  br i1 %5, label %6, label %9

6:                                                ; preds = %2
  %7 = load i64, ptr %3, align 8, !tbaa !7
  %8 = inttoptr i64 %7 to ptr
  call void @llvm.memcpy.p0.p0.i64(ptr align 8 %0, ptr align 8 %8, i64 40, i1 false), !tbaa.struct !201
  br label %20

9:                                                ; preds = %2
  %10 = load i64, ptr %3, align 8, !tbaa !7
  %11 = call i64 @RSTRING_LEN(i64 noundef %10) #27
  %12 = getelementptr inbounds nuw %struct.RString, ptr %0, i32 0, i32 1
  store i64 %11, ptr %12, align 8, !tbaa !202
  %13 = load i64, ptr %3, align 8, !tbaa !7
  %14 = inttoptr i64 %13 to ptr
  %15 = getelementptr inbounds nuw %struct.RString, ptr %14, i32 0, i32 2
  %16 = getelementptr inbounds nuw %struct.anon.19, ptr %15, i32 0, i32 0
  %17 = getelementptr inbounds [1 x i8], ptr %16, i64 0, i64 0
  %18 = getelementptr inbounds nuw %struct.RString, ptr %0, i32 0, i32 2
  %19 = getelementptr inbounds nuw %struct.anon.17, ptr %18, i32 0, i32 0
  store ptr %17, ptr %19, align 8, !tbaa !26
  br label %20

20:                                               ; preds = %9, %6
  ret void
}

; Function Attrs: inlinehint nounwind sspstrong uwtable
define internal i64 @rb_obj_written(i64 noundef %0, i64 noundef %1, i64 noundef %2, ptr noundef %3, i32 noundef %4) #2 {
  %6 = alloca i64, align 8
  %7 = alloca i64, align 8
  %8 = alloca i64, align 8
  %9 = alloca ptr, align 8
  %10 = alloca i32, align 4
  store i64 %0, ptr %6, align 8, !tbaa !7
  store i64 %1, ptr %7, align 8, !tbaa !7
  store i64 %2, ptr %8, align 8, !tbaa !7
  store ptr %3, ptr %9, align 8, !tbaa !11
  store i32 %4, ptr %10, align 4, !tbaa !21
  %11 = load i64, ptr %8, align 8, !tbaa !7
  %12 = call zeroext i1 @RB_SPECIAL_CONST_P(i64 noundef %11) #31
  br i1 %12, label %16, label %13

13:                                               ; preds = %5
  %14 = load i64, ptr %6, align 8, !tbaa !7
  %15 = load i64, ptr %8, align 8, !tbaa !7
  call void @rb_gc_writebarrier(i64 noundef %14, i64 noundef %15)
  br label %16

16:                                               ; preds = %13, %5
  %17 = load i64, ptr %6, align 8, !tbaa !7
  ret i64 %17
}

; Function Attrs: nounwind sspstrong uwtable
define internal ptr @opendir_without_gvl(ptr noundef %0) #0 {
  %2 = alloca ptr, align 8
  %3 = alloca ptr, align 8
  %4 = alloca %union.anon.20, align 8
  store ptr %0, ptr %3, align 8, !tbaa !11
  %5 = load i64, ptr @rb_cThread, align 8, !tbaa !7
  %6 = icmp ne i64 %5, 0
  br i1 %6, label %7, label %11

7:                                                ; preds = %1
  call void @llvm.lifetime.start.p0(i64 8, ptr %4) #26
  %8 = load ptr, ptr %3, align 8, !tbaa !11
  store ptr %8, ptr %4, align 8, !tbaa !26
  %9 = load ptr, ptr %4, align 8, !tbaa !26
  %10 = call ptr @rb_nogvl(ptr noundef @nogvl_opendir, ptr noundef %9, ptr noundef inttoptr (i64 -1 to ptr), ptr noundef null, i32 noundef 4)
  store ptr %10, ptr %2, align 8
  call void @llvm.lifetime.end.p0(i64 8, ptr %4) #26
  br label %14

11:                                               ; preds = %1
  %12 = load ptr, ptr %3, align 8, !tbaa !11
  %13 = call ptr @opendir(ptr noundef %12)
  store ptr %13, ptr %2, align 8
  br label %14

14:                                               ; preds = %11, %7
  %15 = load ptr, ptr %2, align 8
  ret ptr %15
}

; Function Attrs: inlinehint nounwind sspstrong uwtable
define internal ptr @RSTRING_PTR(i64 noundef %0) #2 {
  %2 = alloca i64, align 8
  %3 = alloca ptr, align 8
  %4 = alloca %struct.RString, align 8
  store i64 %0, ptr %2, align 8, !tbaa !7
  call void @llvm.lifetime.start.p0(i64 8, ptr %3) #26
  %5 = load i64, ptr %2, align 8, !tbaa !7
  call void @rbimpl_rstring_getmem(ptr dead_on_unwind writable sret(%struct.RString) align 8 %4, i64 noundef %5) #35
  %6 = getelementptr inbounds nuw %struct.RString, ptr %4, i32 0, i32 2
  %7 = getelementptr inbounds nuw %struct.anon.17, ptr %6, i32 0, i32 0
  %8 = load ptr, ptr %7, align 8, !tbaa !26
  store ptr %8, ptr %3, align 8, !tbaa !11
  %9 = load ptr, ptr %3, align 8, !tbaa !11
  call void @llvm.lifetime.end.p0(i64 8, ptr %3) #26
  ret ptr %9
}

; Function Attrs: inlinehint nounwind sspstrong uwtable
define internal i64 @rb_obj_write(i64 noundef %0, ptr noundef %1, i64 noundef %2, ptr noundef %3, i32 noundef %4) #2 {
  %6 = alloca i64, align 8
  %7 = alloca ptr, align 8
  %8 = alloca i64, align 8
  %9 = alloca ptr, align 8
  %10 = alloca i32, align 4
  store i64 %0, ptr %6, align 8, !tbaa !7
  store ptr %1, ptr %7, align 8, !tbaa !48
  store i64 %2, ptr %8, align 8, !tbaa !7
  store ptr %3, ptr %9, align 8, !tbaa !11
  store i32 %4, ptr %10, align 4, !tbaa !21
  %11 = load i64, ptr %8, align 8, !tbaa !7
  %12 = load ptr, ptr %7, align 8, !tbaa !48
  store i64 %11, ptr %12, align 8, !tbaa !7
  %13 = load i64, ptr %6, align 8, !tbaa !7
  %14 = load i64, ptr %8, align 8, !tbaa !7
  %15 = load ptr, ptr %9, align 8, !tbaa !11
  %16 = load i32, ptr %10, align 4, !tbaa !21
  %17 = call i64 @rb_obj_written(i64 noundef %13, i64 noundef 36, i64 noundef %14, ptr noundef %15, i32 noundef %16)
  %18 = load i64, ptr %6, align 8, !tbaa !7
  ret i64 %18
}

; Function Attrs: nounwind sspstrong uwtable
define internal void @close_dir_data(ptr noundef %0) #0 {
  %2 = alloca ptr, align 8
  %3 = alloca i32, align 4
  store ptr %0, ptr %2, align 8, !tbaa !52
  %4 = load ptr, ptr %2, align 8, !tbaa !52
  %5 = getelementptr inbounds nuw %struct.dir_data, ptr %4, i32 0, i32 0
  %6 = load ptr, ptr %5, align 8, !tbaa !54
  %7 = icmp ne ptr %6, null
  br i1 %7, label %8, label %25

8:                                                ; preds = %1
  %9 = load ptr, ptr %2, align 8, !tbaa !52
  %10 = getelementptr inbounds nuw %struct.dir_data, ptr %9, i32 0, i32 0
  %11 = load ptr, ptr %10, align 8, !tbaa !54
  %12 = call i32 @closedir(ptr noundef %11)
  %13 = icmp slt i32 %12, 0
  br i1 %13, label %14, label %22

14:                                               ; preds = %8
  %15 = load ptr, ptr %2, align 8, !tbaa !52
  %16 = getelementptr inbounds nuw %struct.dir_data, ptr %15, i32 0, i32 0
  store ptr null, ptr %16, align 8, !tbaa !54
  br label %17

17:                                               ; preds = %14
  call void @llvm.lifetime.start.p0(i64 4, ptr %3) #26
  %18 = call ptr @rb_errno_ptr()
  %19 = load i32, ptr %18, align 4, !tbaa !21
  store i32 %19, ptr %3, align 4, !tbaa !21
  %20 = load i32, ptr %3, align 4, !tbaa !21
  call void @rb_syserr_fail(i32 noundef %20, ptr noundef @.str.50) #30
  unreachable

21:                                               ; No predecessors!
  br label %22

22:                                               ; preds = %21, %8
  %23 = load ptr, ptr %2, align 8, !tbaa !52
  %24 = getelementptr inbounds nuw %struct.dir_data, ptr %23, i32 0, i32 0
  store ptr null, ptr %24, align 8, !tbaa !54
  br label %25

25:                                               ; preds = %22, %1
  ret void
}

; Function Attrs: inlinehint nounwind sspstrong willreturn memory(none) uwtable
define internal zeroext i1 @RB_NIL_P(i64 noundef %0) #12 {
  %2 = alloca i64, align 8
  store i64 %0, ptr %2, align 8, !tbaa !7
  %3 = load i64, ptr %2, align 8, !tbaa !7
  %4 = icmp eq i64 %3, 4
  ret i1 %4
}

; Function Attrs: nounwind sspstrong uwtable
define internal i64 @dir_initialize(ptr noundef %0, i64 noundef %1, i64 noundef %2, i64 noundef %3) #0 {
  %5 = alloca ptr, align 8
  %6 = alloca i64, align 8
  %7 = alloca i64, align 8
  %8 = alloca i64, align 8
  %9 = alloca ptr, align 8
  %10 = alloca i64, align 8
  %11 = alloca ptr, align 8
  %12 = alloca ptr, align 8
  %13 = alloca ptr, align 8
  %14 = alloca ptr, align 8
  %15 = alloca i32, align 4
  %16 = alloca ptr, align 8
  %17 = alloca ptr, align 8
  store ptr %0, ptr %5, align 8, !tbaa !70
  store i64 %1, ptr %6, align 8, !tbaa !7
  store i64 %2, ptr %7, align 8, !tbaa !7
  store i64 %3, ptr %8, align 8, !tbaa !7
  call void @llvm.lifetime.start.p0(i64 8, ptr %9) #26
  call void @llvm.lifetime.start.p0(i64 8, ptr %10) #26
  call void @llvm.lifetime.start.p0(i64 8, ptr %11) #26
  call void @llvm.lifetime.start.p0(i64 8, ptr %12) #26
  %18 = load i64, ptr %8, align 8, !tbaa !7
  %19 = call zeroext i1 @RB_NIL_P(i64 noundef %18) #31
  br i1 %19, label %20, label %22

20:                                               ; preds = %4
  %21 = call ptr @rb_filesystem_encoding()
  br label %25

22:                                               ; preds = %4
  %23 = load i64, ptr %8, align 8, !tbaa !7
  %24 = call ptr @rb_to_encoding(i64 noundef %23)
  br label %25

25:                                               ; preds = %22, %20
  %26 = phi ptr [ %21, %20 ], [ %24, %22 ]
  store ptr %26, ptr %12, align 8, !tbaa !19
  %27 = load i64, ptr %7, align 8, !tbaa !7
  %28 = call i64 @rb_get_path(i64 noundef %27)
  call void @llvm.lifetime.start.p0(i64 8, ptr %13) #26
  store ptr %7, ptr %13, align 8, !tbaa !48
  call void asm sideeffect "", "*m,~{dirflag},~{fpsr},~{flags}"(ptr elementtype(ptr) %13) #26, !srcloc !72
  %29 = load ptr, ptr %13, align 8, !tbaa !48
  store ptr %29, ptr %14, align 8, !tbaa !48
  call void @llvm.lifetime.end.p0(i64 8, ptr %13) #26
  %30 = load ptr, ptr %14, align 8, !tbaa !48
  store volatile i64 %28, ptr %30, align 8, !tbaa !7
  %31 = load i64, ptr %7, align 8, !tbaa !7
  %32 = call i64 @rb_str_new_frozen(i64 noundef %31)
  store i64 %32, ptr %10, align 8, !tbaa !7
  %33 = load i64, ptr %7, align 8, !tbaa !7
  %34 = call i64 @rb_str_encode_ospath(i64 noundef %33)
  store i64 %34, ptr %7, align 8, !tbaa !7
  %35 = load i64, ptr %7, align 8, !tbaa !7
  %36 = call i64 @rb_str_new_frozen(i64 noundef %35)
  store i64 %36, ptr %7, align 8, !tbaa !7
  %37 = load i64, ptr %6, align 8, !tbaa !7
  %38 = call ptr @rb_check_typeddata(i64 noundef %37, ptr noundef @dir_data_type)
  store ptr %38, ptr %9, align 8, !tbaa !52
  %39 = load ptr, ptr %9, align 8, !tbaa !52
  call void @close_dir_data(ptr noundef %39)
  %40 = load i64, ptr %6, align 8, !tbaa !7
  %41 = load ptr, ptr %9, align 8, !tbaa !52
  %42 = getelementptr inbounds nuw %struct.dir_data, ptr %41, i32 0, i32 1
  %43 = call i64 @rb_obj_write(i64 noundef %40, ptr noundef %42, i64 noundef 4, ptr noundef @.str.53, i32 noundef 608)
  %44 = load ptr, ptr %12, align 8, !tbaa !19
  %45 = load ptr, ptr %9, align 8, !tbaa !52
  %46 = getelementptr inbounds nuw %struct.dir_data, ptr %45, i32 0, i32 2
  store ptr %44, ptr %46, align 8, !tbaa !57
  %47 = load i64, ptr %7, align 8, !tbaa !7
  %48 = call ptr @RSTRING_PTR(i64 noundef %47)
  store ptr %48, ptr %11, align 8, !tbaa !11
  %49 = load ptr, ptr %11, align 8, !tbaa !11
  %50 = call ptr @opendir_without_gvl(ptr noundef %49)
  %51 = load ptr, ptr %9, align 8, !tbaa !52
  %52 = getelementptr inbounds nuw %struct.dir_data, ptr %51, i32 0, i32 0
  store ptr %50, ptr %52, align 8, !tbaa !54
  %53 = load ptr, ptr %9, align 8, !tbaa !52
  %54 = getelementptr inbounds nuw %struct.dir_data, ptr %53, i32 0, i32 0
  %55 = load ptr, ptr %54, align 8, !tbaa !54
  %56 = icmp eq ptr %55, null
  br i1 %56, label %57, label %80

57:                                               ; preds = %25
  call void @llvm.lifetime.start.p0(i64 4, ptr %15) #26
  %58 = call ptr @rb_errno_ptr()
  %59 = load i32, ptr %58, align 4, !tbaa !21
  store i32 %59, ptr %15, align 4, !tbaa !21
  %60 = load i32, ptr %15, align 4, !tbaa !21
  %61 = call i32 @rb_gc_for_fd(i32 noundef %60)
  %62 = icmp ne i32 %61, 0
  br i1 %62, label %63, label %68

63:                                               ; preds = %57
  %64 = load ptr, ptr %11, align 8, !tbaa !11
  %65 = call ptr @opendir_without_gvl(ptr noundef %64)
  %66 = load ptr, ptr %9, align 8, !tbaa !52
  %67 = getelementptr inbounds nuw %struct.dir_data, ptr %66, i32 0, i32 0
  store ptr %65, ptr %67, align 8, !tbaa !54
  br label %68

68:                                               ; preds = %63, %57
  %69 = load ptr, ptr %9, align 8, !tbaa !52
  %70 = getelementptr inbounds nuw %struct.dir_data, ptr %69, i32 0, i32 0
  %71 = load ptr, ptr %70, align 8, !tbaa !54
  %72 = icmp eq ptr %71, null
  br i1 %72, label %73, label %79

73:                                               ; preds = %68
  call void @llvm.lifetime.start.p0(i64 8, ptr %16) #26
  store ptr %7, ptr %16, align 8, !tbaa !48
  call void asm sideeffect "", "*m,~{dirflag},~{fpsr},~{flags}"(ptr elementtype(ptr) %16) #26, !srcloc !73
  %74 = load ptr, ptr %16, align 8, !tbaa !48
  store ptr %74, ptr %17, align 8, !tbaa !48
  call void @llvm.lifetime.end.p0(i64 8, ptr %16) #26
  %75 = load ptr, ptr %17, align 8, !tbaa !48
  %76 = load volatile i64, ptr %75, align 8, !tbaa !7
  %77 = load i32, ptr %15, align 4, !tbaa !21
  %78 = load i64, ptr %10, align 8, !tbaa !7
  call void @rb_syserr_fail_path_in(ptr noundef @.str.41, i32 noundef %77, i64 noundef %78) #30
  unreachable

79:                                               ; preds = %68
  call void @llvm.lifetime.end.p0(i64 4, ptr %15) #26
  br label %80

80:                                               ; preds = %79, %25
  %81 = load i64, ptr %6, align 8, !tbaa !7
  %82 = load ptr, ptr %9, align 8, !tbaa !52
  %83 = getelementptr inbounds nuw %struct.dir_data, ptr %82, i32 0, i32 1
  %84 = load i64, ptr %10, align 8, !tbaa !7
  %85 = call i64 @rb_obj_write(i64 noundef %81, ptr noundef %83, i64 noundef %84, ptr noundef @.str.53, i32 noundef 632)
  %86 = load i64, ptr %6, align 8, !tbaa !7
  call void @llvm.lifetime.end.p0(i64 8, ptr %12) #26
  call void @llvm.lifetime.end.p0(i64 8, ptr %11) #26
  call void @llvm.lifetime.end.p0(i64 8, ptr %10) #26
  call void @llvm.lifetime.end.p0(i64 8, ptr %9) #26
  ret i64 %86
}