; Function Attrs: nounwind sspstrong uwtable
define internal noundef i64 @dir_initialize(ptr readnone captures(none) %0, i64 noundef returned %1, i64 noundef %2, i64 noundef %3) #0 {
  %5 = alloca i64, align 8
  %6 = alloca ptr, align 8
  %7 = alloca ptr, align 8
  store i64 %2, ptr %5, align 8, !tbaa !7
  %8 = icmp eq i64 %3, 4
  br i1 %8, label %9, label %11

9:                                                ; preds = %4
  %10 = tail call ptr @rb_filesystem_encoding() #22
  br label %13

11:                                               ; preds = %4
  %12 = tail call ptr @rb_to_encoding(i64 noundef %3) #22
  br label %13

13:                                               ; preds = %11, %9
  %14 = phi ptr [ %10, %9 ], [ %12, %11 ]
  %15 = tail call i64 @rb_get_path(i64 noundef %2) #22
  call void @llvm.lifetime.start.p0(i64 8, ptr nonnull %6) #22
  store ptr %5, ptr %6, align 8, !tbaa !47
  call void asm sideeffect "", "*m,~{dirflag},~{fpsr},~{flags}"(ptr nonnull elementtype(ptr) %6) #22, !srcloc !112
  %16 = load ptr, ptr %6, align 8, !tbaa !47
  call void @llvm.lifetime.end.p0(i64 8, ptr nonnull %6) #22
  store volatile i64 %15, ptr %16, align 8, !tbaa !7
  %17 = load i64, ptr %5, align 8, !tbaa !7
  %18 = call i64 @rb_str_new_frozen(i64 noundef %17) #22
  %19 = load i64, ptr %5, align 8, !tbaa !7
  %20 = call i64 @rb_str_encode_ospath(i64 noundef %19) #22
  store i64 %20, ptr %5, align 8, !tbaa !7
  %21 = call i64 @rb_str_new_frozen(i64 noundef %20) #22
  store i64 %21, ptr %5, align 8, !tbaa !7
  %22 = call ptr @rb_check_typeddata(i64 noundef %1, ptr noundef nonnull @dir_data_type) #22
  %23 = load ptr, ptr %22, align 8, !tbaa !54
  %.not.i = icmp eq ptr %23, null
  br i1 %.not.i, label %close_dir_data.exit, label %24

24:                                               ; preds = %13
  %25 = call i32 @closedir(ptr noundef nonnull %23)
  %26 = icmp slt i32 %25, 0
  store ptr null, ptr %22, align 8, !tbaa !54
  br i1 %26, label %27, label %close_dir_data.exit

27:                                               ; preds = %24
  %28 = call ptr @rb_errno_ptr() #22
  %29 = load i32, ptr %28, align 4, !tbaa !58
  call void @rb_syserr_fail(i32 noundef %29, ptr noundef nonnull @.str.50) #26
  unreachable

close_dir_data.exit:                              ; preds = %13, %24
  %30 = getelementptr inbounds nuw i8, ptr %22, i64 8
  store i64 4, ptr %30, align 8, !tbaa !7
  %31 = getelementptr inbounds nuw i8, ptr %22, i64 16
  store ptr %14, ptr %31, align 8, !tbaa !57
  %32 = load i64, ptr %5, align 8, !tbaa !7
  %33 = inttoptr i64 %32 to ptr
  %34 = load i64, ptr %33, align 8, !tbaa !61, !noalias !113
  %35 = and i64 %34, 8192
  %.not.i.i = icmp eq i64 %35, 0
  %36 = getelementptr inbounds nuw i8, ptr %33, i64 24
  br i1 %.not.i.i, label %RSTRING_PTR.exit, label %37

37:                                               ; preds = %close_dir_data.exit
  %.sroa.2.0.copyload.i = load ptr, ptr %36, align 8
  br label %RSTRING_PTR.exit

RSTRING_PTR.exit:                                 ; preds = %close_dir_data.exit, %37
  %.sroa.2.0.i = phi ptr [ %.sroa.2.0.copyload.i, %37 ], [ %36, %close_dir_data.exit ]
  %38 = load i64, ptr @rb_cThread, align 8, !tbaa !7
  %.not.i22 = icmp eq i64 %38, 0
  br i1 %.not.i22, label %41, label %39

39:                                               ; preds = %RSTRING_PTR.exit
  %40 = call ptr @rb_nogvl(ptr noundef nonnull @nogvl_opendir, ptr noundef %.sroa.2.0.i, ptr noundef nonnull inttoptr (i64 -1 to ptr), ptr noundef null, i32 noundef 4) #22
  br label %opendir_without_gvl.exit

41:                                               ; preds = %RSTRING_PTR.exit
  %42 = call ptr @opendir(ptr noundef %.sroa.2.0.i)
  br label %opendir_without_gvl.exit

opendir_without_gvl.exit:                         ; preds = %39, %41
  %.0.i = phi ptr [ %40, %39 ], [ %42, %41 ]
  store ptr %.0.i, ptr %22, align 8, !tbaa !54
  %43 = icmp eq ptr %.0.i, null
  br i1 %43, label %44, label %60

44:                                               ; preds = %opendir_without_gvl.exit
  %45 = call ptr @rb_errno_ptr() #22
  %46 = load i32, ptr %45, align 4, !tbaa !58
  %47 = call i32 @rb_gc_for_fd(i32 noundef %46) #22
  %.not = icmp eq i32 %47, 0
  br i1 %.not, label %thread-pre-split, label %48

48:                                               ; preds = %44
  %49 = load i64, ptr @rb_cThread, align 8, !tbaa !7
  %.not.i23 = icmp eq i64 %49, 0
  br i1 %.not.i23, label %52, label %50

50:                                               ; preds = %48
  %51 = call ptr @rb_nogvl(ptr noundef nonnull @nogvl_opendir, ptr noundef %.sroa.2.0.i, ptr noundef nonnull inttoptr (i64 -1 to ptr), ptr noundef null, i32 noundef 4) #22
  br label %opendir_without_gvl.exit25

52:                                               ; preds = %48
  %53 = call ptr @opendir(ptr noundef %.sroa.2.0.i)
  br label %opendir_without_gvl.exit25

opendir_without_gvl.exit25:                       ; preds = %50, %52
  %.0.i24 = phi ptr [ %51, %50 ], [ %53, %52 ]
  store ptr %.0.i24, ptr %22, align 8, !tbaa !54
  br label %54

thread-pre-split:                                 ; preds = %44
  %.pr = load ptr, ptr %22, align 8, !tbaa !54
  br label %54

54:                                               ; preds = %thread-pre-split, %opendir_without_gvl.exit25
  %55 = phi ptr [ %.pr, %thread-pre-split ], [ %.0.i24, %opendir_without_gvl.exit25 ]
  %56 = icmp eq ptr %55, null
  br i1 %56, label %57, label %60

57:                                               ; preds = %54
  call void @llvm.lifetime.start.p0(i64 8, ptr nonnull %7) #22
  store ptr %5, ptr %7, align 8, !tbaa !47
  call void asm sideeffect "", "*m,~{dirflag},~{fpsr},~{flags}"(ptr nonnull elementtype(ptr) %7) #22, !srcloc !116
  %58 = load ptr, ptr %7, align 8, !tbaa !47
  call void @llvm.lifetime.end.p0(i64 8, ptr nonnull %7) #22
  %59 = load volatile i64, ptr %58, align 8, !tbaa !7
  call void @rb_syserr_fail_path_in(ptr noundef nonnull @.str.41, i32 noundef %46, i64 noundef %18) #26
  unreachable

60:                                               ; preds = %54, %opendir_without_gvl.exit
  store i64 %18, ptr %30, align 8, !tbaa !7
  %61 = icmp eq i64 %18, 0
  %62 = and i64 %18, 7
  %63 = icmp ne i64 %62, 0
  %64 = or i1 %61, %63
  br i1 %64, label %rb_obj_write.exit, label %65

65:                                               ; preds = %60
  call void @rb_gc_writebarrier(i64 noundef %1, i64 noundef %18) #22
  br label %rb_obj_write.exit

rb_obj_write.exit:                                ; preds = %60, %65
  ret i64 %1
}